; Function Attrs: mustprogress nofree norecurse nosync nounwind willreturn memory(argmem: readwrite) uwtable
define void @_ZN5Moves4StepEii(ptr nocapture noundef nonnull align 8 dereferenceable(39992) %0, i32 noundef %1, i32 noundef %2) local_unnamed_addr #12 align 2 {
  %4 = getelementptr inbounds nuw i8, ptr %0, i64 2904
  %5 = sext i32 %1 to i64
  %6 = sext i32 %2 to i64
  %7 = getelementptr inbounds [13 x [4 x %struct.movePlyType]], ptr %4, i64 0, i64 %5, i64 %6, i32 1
  %8 = load i32, ptr %7, align 8
  %9 = add nsw i32 %8, 1
  store i32 %9, ptr %7, align 8
  ret void
}